target datalayout = "e-m:e-p270:32:32-p271:32:32-p272:64:64-i64:64-i128:128-f80:128-n8:16:32:64-S128"
target triple = "x86_64-pc-linux-gnu"

%struct.ossl_list_st_uint_set = type { ptr, ptr, i64 }
%struct.uint_set_item_st = type { %struct.anon, %struct.uint_range_st }
%struct.anon = type { ptr, ptr }
%struct.uint_range_st = type { i64, i64 }

; Function Attrs: inlinehint nounwind uwtable
define internal ptr @ossl_list_uint_set_prev(ptr noundef %0) #1 {
  %2 = alloca ptr, align 8
  store ptr %0, ptr %2, align 8, !tbaa !8
  %3 = load ptr, ptr %2, align 8, !tbaa !8
  %4 = getelementptr inbounds nuw %struct.uint_set_item_st, ptr %3, i32 0, i32 0
  %5 = getelementptr inbounds nuw %struct.anon, ptr %4, i32 0, i32 1
  %6 = load ptr, ptr %5, align 8, !tbaa !31
  ret ptr %6
}

; Function Attrs: inlinehint nounwind uwtable
define internal ptr @ossl_list_uint_set_tail(ptr noundef %0) #1 {
  %2 = alloca ptr, align 8
  store ptr %0, ptr %2, align 8, !tbaa !3
  %3 = load ptr, ptr %2, align 8, !tbaa !3
  %4 = getelementptr inbounds nuw %struct.ossl_list_st_uint_set, ptr %3, i32 0, i32 1
  %5 = load ptr, ptr %4, align 8, !tbaa !32
  ret ptr %5
}

; Function Attrs: inlinehint nounwind uwtable
define internal i32 @ossl_list_uint_set_is_empty(ptr noundef %0) #1 {
  %2 = alloca ptr, align 8
  store ptr %0, ptr %2, align 8, !tbaa !3
  %3 = load ptr, ptr %2, align 8, !tbaa !3
  %4 = getelementptr inbounds nuw %struct.ossl_list_st_uint_set, ptr %3, i32 0, i32 2
  %5 = load i64, ptr %4, align 8, !tbaa !30
  %6 = icmp eq i64 %5, 0
  %7 = zext i1 %6 to i32
  ret i32 %7
}

; Function Attrs: nounwind uwtable
define i32 @ossl_uint_set_query(ptr noundef %0, i64 noundef %1) #0 {
  %3 = alloca i32, align 4
  %4 = alloca ptr, align 8
  %5 = alloca i64, align 8
  %6 = alloca ptr, align 8
  %7 = alloca i32, align 4
  store ptr %0, ptr %4, align 8, !tbaa !3
  store i64 %1, ptr %5, align 8, !tbaa !22
  call void @llvm.lifetime.start.p0(i64 8, ptr %6) #6
  %8 = load ptr, ptr %4, align 8, !tbaa !3
  %9 = call i32 @ossl_list_uint_set_is_empty(ptr noundef %8)
  %10 = icmp ne i32 %9, 0
  br i1 %10, label %11, label %12

11:                                               ; preds = %2
  store i32 0, ptr %3, align 4
  store i32 1, ptr %7, align 4
  br label %47

12:                                               ; preds = %2
  %13 = load ptr, ptr %4, align 8, !tbaa !3
  %14 = call ptr @ossl_list_uint_set_tail(ptr noundef %13)
  store ptr %14, ptr %6, align 8, !tbaa !8
  br label %15

15:                                               ; preds = %43, %12
  %16 = load ptr, ptr %6, align 8, !tbaa !8
  %17 = icmp ne ptr %16, null
  br i1 %17, label %18, label %46

18:                                               ; preds = %15
  %19 = load ptr, ptr %6, align 8, !tbaa !8
  %20 = getelementptr inbounds nuw %struct.uint_set_item_st, ptr %19, i32 0, i32 1
  %21 = getelementptr inbounds nuw %struct.uint_range_st, ptr %20, i32 0, i32 0
  %22 = load i64, ptr %21, align 8, !tbaa !25
  %23 = load i64, ptr %5, align 8, !tbaa !22
  %24 = icmp ule i64 %22, %23
  br i1 %24, label %25, label %33

25:                                               ; preds = %18
  %26 = load ptr, ptr %6, align 8, !tbaa !8
  %27 = getelementptr inbounds nuw %struct.uint_set_item_st, ptr %26, i32 0, i32 1
  %28 = getelementptr inbounds nuw %struct.uint_range_st, ptr %27, i32 0, i32 1
  %29 = load i64, ptr %28, align 8, !tbaa !24
  %30 = load i64, ptr %5, align 8, !tbaa !22
  %31 = icmp uge i64 %29, %30
  br i1 %31, label %32, label %33

32:                                               ; preds = %25
  store i32 1, ptr %3, align 4
  store i32 1, ptr %7, align 4
  br label %47

33:                                               ; preds = %25, %18
  %34 = load ptr, ptr %6, align 8, !tbaa !8
  %35 = getelementptr inbounds nuw %struct.uint_set_item_st, ptr %34, i32 0, i32 1
  %36 = getelementptr inbounds nuw %struct.uint_range_st, ptr %35, i32 0, i32 1
  %37 = load i64, ptr %36, align 8, !tbaa !24
  %38 = load i64, ptr %5, align 8, !tbaa !22
  %39 = icmp ult i64 %37, %38
  br i1 %39, label %40, label %41

40:                                               ; preds = %33
  store i32 0, ptr %3, align 4
  store i32 1, ptr %7, align 4
  br label %47

41:                                               ; preds = %33
  br label %42

42:                                               ; preds = %41
  br label %43

43:                                               ; preds = %42
  %44 = load ptr, ptr %6, align 8, !tbaa !8
  %45 = call ptr @ossl_list_uint_set_prev(ptr noundef %44)
  store ptr %45, ptr %6, align 8, !tbaa !8
  br label %15, !llvm.loop !34

46:                                               ; preds = %15
  store i32 0, ptr %3, align 4
  store i32 1, ptr %7, align 4
  br label %47

47:                                               ; preds = %46, %40, %32, %11
  call void @llvm.lifetime.end.p0(i64 8, ptr %6) #6
  %48 = load i32, ptr %3, align 4
  ret i32 %48
}