; Function Attrs: nofree norecurse nosync nounwind memory(read, inaccessiblemem: none) uwtable
define range(i32 0, 2) i32 @ossl_uint_set_query(ptr noundef readonly captures(none) %0, i64 noundef %1) local_unnamed_addr #3 {
  %3 = getelementptr i8, ptr %0, i64 16
  %.val = load i64, ptr %3, align 8, !tbaa !19
  %.not = icmp eq i64 %.val, 0
  br i1 %.not, label %.loopexit, label %.preheader

.preheader:                                       ; preds = %2, %._crit_edge
  %.pn = phi ptr [ %.0, %._crit_edge ], [ %0, %2 ]
  %.0.in = getelementptr i8, ptr %.pn, i64 8
  %.0 = load ptr, ptr %.0.in, align 8, !tbaa !29
  %.not12 = icmp eq ptr %.0, null
  br i1 %.not12, label %.loopexit, label %4

4:                                                ; preds = %.preheader
  %5 = getelementptr inbounds nuw i8, ptr %.0, i64 16
  %6 = load i64, ptr %5, align 8, !tbaa !20
  %.not13 = icmp ugt i64 %6, %1
  %.phi.trans.insert = getelementptr inbounds nuw i8, ptr %.0, i64 24
  %.pre = load i64, ptr %.phi.trans.insert, align 8, !tbaa !21
  %.not14 = icmp ult i64 %.pre, %1
  %or.cond = select i1 %.not13, i1 true, i1 %.not14
  br i1 %or.cond, label %._crit_edge, label %.loopexit

._crit_edge:                                      ; preds = %4
  %7 = icmp ult i64 %.pre, %1
  br i1 %7, label %.loopexit, label %.preheader, !llvm.loop !30

.loopexit:                                        ; preds = %.preheader, %._crit_edge, %4, %2
  %.010 = phi i32 [ 0, %2 ], [ 0, %.preheader ], [ 0, %._crit_edge ], [ 1, %4 ]
  ret i32 %.010
}